; Function Attrs: mustprogress uwtable
define dso_local void @_ZNK4Luau8DiffPath8toStringB5cxx11Eb(ptr dead_on_unwind noalias nonnull writable sret(%"class.std::__cxx11::basic_string") align 8 %0, ptr nocapture noundef nonnull readonly align 8 dereferenceable(24) %1, i1 noundef zeroext %2) local_unnamed_addr #1 align 2 personality ptr @__gxx_personality_v0 {
  %4 = alloca %"class.std::__cxx11::basic_string", align 8
  tail call void @_ZNSt7__cxx1112basic_stringIcSt11char_traitsIcESaIcEEC1Ev(ptr noundef nonnull align 8 dereferenceable(32) %0) #22
  %5 = getelementptr inbounds i8, ptr %1, i64 8
  %6 = load ptr, ptr %5, align 8, !noalias !8
  %7 = load ptr, ptr %1, align 8, !noalias !11
  %.not11 = icmp eq ptr %6, %7
  br i1 %.not11, label %._crit_edge, label %.lr.ph.preheader

.lr.ph.preheader:                                 ; preds = %3
  %8 = xor i1 %2, true
  br label %.lr.ph

.lr.ph:                                           ; preds = %.lr.ph.preheader, %17
  %.0613 = phi i1 [ false, %17 ], [ %8, %.lr.ph.preheader ]
  %.sroa.09.012 = phi ptr [ %14, %17 ], [ %6, %.lr.ph.preheader ]
  br i1 %.0613, label %13, label %11

9:                                                ; preds = %13, %11
  %10 = landingpad { ptr, i32 }
          cleanup
  br label %21

11:                                               ; preds = %.lr.ph
  %12 = invoke noundef nonnull align 8 dereferenceable(32) ptr @_ZNSt7__cxx1112basic_stringIcSt11char_traitsIcESaIcEEpLEPKc(ptr noundef nonnull align 8 dereferenceable(32) %0, ptr noundef nonnull @.str.59)
          to label %13 unwind label %9

13:                                               ; preds = %11, %.lr.ph
  %14 = getelementptr inbounds i8, ptr %.sroa.09.012, i64 -64
  invoke void @_ZNK4Luau12DiffPathNode8toStringB5cxx11Ev(ptr dead_on_unwind nonnull writable sret(%"class.std::__cxx11::basic_string") align 8 %4, ptr noundef nonnull align 8 dereferenceable(64) %14)
          to label %15 unwind label %9

15:                                               ; preds = %13
  %16 = invoke noundef nonnull align 8 dereferenceable(32) ptr @_ZNSt7__cxx1112basic_stringIcSt11char_traitsIcESaIcEEpLERKS4_(ptr noundef nonnull align 8 dereferenceable(32) %0, ptr noundef nonnull align 8 dereferenceable(32) %4)
          to label %17 unwind label %19

17:                                               ; preds = %15
  call void @_ZNSt7__cxx1112basic_stringIcSt11char_traitsIcESaIcEED1Ev(ptr noundef nonnull align 8 dereferenceable(32) %4) #22
  %18 = load ptr, ptr %1, align 8, !noalias !11
  %.not = icmp eq ptr %14, %18
  br i1 %.not, label %._crit_edge, label %.lr.ph, !llvm.loop !14

19:                                               ; preds = %15
  %20 = landingpad { ptr, i32 }
          cleanup
  call void @_ZNSt7__cxx1112basic_stringIcSt11char_traitsIcESaIcEED1Ev(ptr noundef nonnull align 8 dereferenceable(32) %4) #22
  br label %21

._crit_edge:                                      ; preds = %17, %3
  ret void

21:                                               ; preds = %19, %9
  %.pn = phi { ptr, i32 } [ %20, %19 ], [ %10, %9 ]
  call void @_ZNSt7__cxx1112basic_stringIcSt11char_traitsIcESaIcEED1Ev(ptr noundef nonnull align 8 dereferenceable(32) %0) #22
  resume { ptr, i32 } %.pn
}